target datalayout = "e-m:e-p270:32:32-p271:32:32-p272:64:64-i64:64-i128:128-f80:128-n8:16:32:64-S128"
target triple = "x86_64-pc-linux-gnu"

%struct.cli_ctx_tag = type { ptr, ptr, ptr, ptr, ptr, ptr, ptr, i64, ptr, i32, i32, ptr, i32, i32, ptr, [16 x i8], ptr, ptr, ptr, ptr, ptr, ptr, %struct.timeval, i8, i8 }
%struct.timeval = type { i64, i64 }
%struct.cl_engine = type { i32, i32, i32, [2 x i32], i32, i32, i32, ptr, i32, i64, i32, i32, i64, i64, i32, i32, i32, i32, ptr, ptr, ptr, ptr, ptr, ptr, ptr, ptr, ptr, ptr, ptr, ptr, ptr, ptr, ptr, ptr, ptr, ptr, ptr, i64, ptr, %struct.crtmgr, ptr, ptr, ptr, ptr, ptr, ptr, ptr, ptr, ptr, ptr, ptr, ptr, ptr, ptr, ptr, ptr, ptr, %struct.cli_all_bc, [7 x ptr], [7 x i32], i32, i32, i32, i32, i64, i64, i64, i64, i64, ptr, ptr, ptr, ptr, ptr, ptr, ptr, ptr, ptr, i32, i32, i32, i64, i64, i64, ptr }
%struct.crtmgr = type { ptr, i32 }
%struct.cli_all_bc = type { ptr, i32, ptr, %struct.cli_environment, i32 }
%struct.cli_environment = type { i32, i32, i32, i32, i32, i32, i32, [65 x i8], [65 x i8], [65 x i8], [65 x i8], [65 x i8], [65 x i8], [65 x i8], i8, i8, i8, i8, i8, i8, i8, i8, i8 }

@.str.273 = private unnamed_addr constant [18 x i8] c"in cli_scantar()\0A\00", align 1
@.str.274 = private unnamed_addr constant [8 x i8] c"tar-tmp\00", align 1
@.str.275 = private unnamed_addr constant [42 x i8] c"Tar: Can't create temporary directory %s\0A\00", align 1

; Function Attrs: nounwind uwtable
define internal i32 @cli_scantar(ptr noundef %0, i32 noundef %1) #0 {
  %3 = alloca i32, align 4
  %4 = alloca ptr, align 8
  %5 = alloca i32, align 4
  %6 = alloca ptr, align 8
  %7 = alloca i32, align 4
  store ptr %0, ptr %4, align 8
  store i32 %1, ptr %5, align 4
  store i32 0, ptr %7, align 4
  call void (ptr, ...) @cli_dbgmsg(ptr noundef @.str.273)
  %8 = load ptr, ptr %4, align 8
  %9 = getelementptr inbounds %struct.cli_ctx_tag, ptr %8, i32 0, i32 2
  %10 = load ptr, ptr %9, align 8
  %11 = call ptr @cli_gentemp_with_prefix(ptr noundef %10, ptr noundef @.str.274)
  store ptr %11, ptr %6, align 8
  %12 = icmp ne ptr %11, null
  br i1 %12, label %14, label %13

13:                                               ; preds = %2
  store i32 20, ptr %3, align 4
  br label %38

14:                                               ; preds = %2
  %15 = load ptr, ptr %6, align 8
  %16 = call i32 @mkdir(ptr noundef %15, i32 noundef 448) #11
  %17 = icmp ne i32 %16, 0
  br i1 %17, label %18, label %21

18:                                               ; preds = %14
  %19 = load ptr, ptr %6, align 8
  call void (ptr, ...) @cli_errmsg(ptr noundef @.str.275, ptr noundef %19)
  %20 = load ptr, ptr %6, align 8
  call void @free(ptr noundef %20) #11
  store i32 18, ptr %3, align 4
  br label %38

21:                                               ; preds = %14
  %22 = load ptr, ptr %6, align 8
  %23 = load i32, ptr %5, align 4
  %24 = load ptr, ptr %4, align 8
  %25 = call i32 @cli_untar(ptr noundef %22, i32 noundef %23, ptr noundef %24)
  store i32 %25, ptr %7, align 4
  %26 = load ptr, ptr %4, align 8
  %27 = getelementptr inbounds %struct.cli_ctx_tag, ptr %26, i32 0, i32 6
  %28 = load ptr, ptr %27, align 8
  %29 = getelementptr inbounds %struct.cl_engine, ptr %28, i32 0, i32 8
  %30 = load i32, ptr %29, align 8
  %31 = icmp ne i32 %30, 0
  br i1 %31, label %35, label %32

32:                                               ; preds = %21
  %33 = load ptr, ptr %6, align 8
  %34 = call i32 @cli_rmdirs(ptr noundef %33)
  br label %35

35:                                               ; preds = %32, %21
  %36 = load ptr, ptr %6, align 8
  call void @free(ptr noundef %36) #11
  %37 = load i32, ptr %7, align 4
  store i32 %37, ptr %3, align 4
  br label %38

38:                                               ; preds = %35, %18, %13
  %39 = load i32, ptr %3, align 4
  ret i32 %39
}