; Function Attrs: nounwind uwtable
define internal fastcc i32 @cli_scantar(ptr noundef %0, i32 noundef range(i32 0, 2) %1) unnamed_addr #0 {
  tail call void (ptr, ...) @cli_dbgmsg(ptr noundef nonnull @.str.273) #16
  %3 = getelementptr inbounds nuw i8, ptr %0, i64 16
  %4 = load ptr, ptr %3, align 8
  %5 = tail call ptr @cli_gentemp_with_prefix(ptr noundef %4, ptr noundef nonnull @.str.274) #16
  %.not = icmp eq ptr %5, null
  br i1 %.not, label %17, label %6

6:                                                ; preds = %2
  %7 = tail call i32 @mkdir(ptr noundef nonnull %5, i32 noundef 448) #16
  %.not12 = icmp eq i32 %7, 0
  br i1 %.not12, label %9, label %8

8:                                                ; preds = %6
  tail call void (ptr, ...) @cli_errmsg(ptr noundef nonnull @.str.275, ptr noundef nonnull %5) #16
  br label %.sink.split

9:                                                ; preds = %6
  %10 = tail call i32 @cli_untar(ptr noundef nonnull %5, i32 noundef %1, ptr noundef nonnull %0) #16
  %11 = getelementptr inbounds nuw i8, ptr %0, i64 48
  %12 = load ptr, ptr %11, align 8
  %13 = getelementptr inbounds nuw i8, ptr %12, i64 40
  %14 = load i32, ptr %13, align 8
  %.not13 = icmp eq i32 %14, 0
  br i1 %.not13, label %15, label %.sink.split

15:                                               ; preds = %9
  %16 = tail call i32 @cli_rmdirs(ptr noundef nonnull %5) #16
  br label %.sink.split

.sink.split:                                      ; preds = %9, %15, %8
  %.0.ph = phi i32 [ 18, %8 ], [ %10, %15 ], [ %10, %9 ]
  tail call void @free(ptr noundef nonnull %5) #16
  br label %17

17:                                               ; preds = %.sink.split, %2
  %.0 = phi i32 [ 20, %2 ], [ %.0.ph, %.sink.split ]
  ret i32 %.0
}